target datalayout = "e-m:e-p270:32:32-p271:32:32-p272:64:64-i64:64-i128:128-f80:128-n8:16:32:64-S128"
target triple = "x86_64-pc-linux-gnu"

%"class.zmq::stream_connecter_base_t" = type { %"class.zmq::own_t.base", %"class.zmq::io_object_t", ptr, i32, ptr, %"class.std::__cxx11::basic_string", ptr, i8, i8, i32, ptr }
%"class.zmq::own_t.base" = type <{ %"class.zmq::object_t.base", [4 x i8], %"struct.zmq::options_t", i8, [7 x i8], %"class.zmq::atomic_counter_t", i64, ptr, %"class.std::set.24", i32 }>
%"class.zmq::object_t.base" = type <{ ptr, ptr, i32 }>
%"struct.zmq::options_t" = type { i32, i32, i64, i8, [256 x i8], i32, i32, i32, i32, i32, i32, i32, i32, i8, %"struct.zmq::atomic_value_t", i32, i32, i32, i32, i32, i32, i64, i32, i32, i8, i32, i8, i8, i8, i8, i8, %"class.std::__cxx11::basic_string", %"class.std::__cxx11::basic_string", %"class.std::__cxx11::basic_string", i32, i32, i32, i32, %"class.std::vector", %"class.std::set", %"class.std::set", %"class.std::set.6", i32, i32, %"class.std::__cxx11::basic_string", %"class.std::__cxx11::basic_string", %"class.std::__cxx11::basic_string", [32 x i8], [32 x i8], [32 x i8], %"class.std::__cxx11::basic_string", %"class.std::__cxx11::basic_string", i32, i32, i8, i32, i8, i32, i8, i16, i32, i32, i32, %"class.std::__cxx11::basic_string", i8, i8, i8, i32, i32, i8, i32, %"class.std::map", i32, %"class.std::__cxx11::basic_string", %"class.std::__cxx11::basic_string", %"class.std::__cxx11::basic_string", %"class.std::__cxx11::basic_string", i8, %"class.std::vector.17", i8, %"class.std::vector.17", i8, %"class.std::vector.17", i8, i32, i8, i32, i32, i32, i32, i32, i8, i32 }
%"struct.zmq::atomic_value_t" = type { %"struct.std::atomic" }
%"struct.std::atomic" = type { %"struct.std::__atomic_base" }
%"struct.std::__atomic_base" = type { i32 }
%"class.std::vector" = type { %"struct.std::_Vector_base" }
%"struct.std::_Vector_base" = type { %"struct.std::_Vector_base<zmq::tcp_address_mask_t, std::allocator<zmq::tcp_address_mask_t>>::_Vector_impl" }
%"struct.std::_Vector_base<zmq::tcp_address_mask_t, std::allocator<zmq::tcp_address_mask_t>>::_Vector_impl" = type { %"struct.std::_Vector_base<zmq::tcp_address_mask_t, std::allocator<zmq::tcp_address_mask_t>>::_Vector_impl_data" }
%"struct.std::_Vector_base<zmq::tcp_address_mask_t, std::allocator<zmq::tcp_address_mask_t>>::_Vector_impl_data" = type { ptr, ptr, ptr }
%"class.std::set" = type { %"class.std::_Rb_tree" }
%"class.std::_Rb_tree" = type { %"struct.std::_Rb_tree<unsigned int, unsigned int, std::_Identity<unsigned int>, std::less<unsigned int>>::_Rb_tree_impl" }
%"struct.std::_Rb_tree<unsigned int, unsigned int, std::_Identity<unsigned int>, std::less<unsigned int>>::_Rb_tree_impl" = type { [8 x i8], %"struct.std::_Rb_tree_header" }
%"struct.std::_Rb_tree_header" = type { %"struct.std::_Rb_tree_node_base", i64 }
%"struct.std::_Rb_tree_node_base" = type { i32, ptr, ptr, ptr }
%"class.std::set.6" = type { %"class.std::_Rb_tree.7" }
%"class.std::_Rb_tree.7" = type { %"struct.std::_Rb_tree<int, int, std::_Identity<int>, std::less<int>>::_Rb_tree_impl" }
%"struct.std::_Rb_tree<int, int, std::_Identity<int>, std::less<int>>::_Rb_tree_impl" = type { [8 x i8], %"struct.std::_Rb_tree_header" }
%"class.std::map" = type { %"class.std::_Rb_tree.12" }
%"class.std::_Rb_tree.12" = type { %"struct.std::_Rb_tree<std::__cxx11::basic_string<char>, std::pair<const std::__cxx11::basic_string<char>, std::__cxx11::basic_string<char>>, std::_Select1st<std::pair<const std::__cxx11::basic_string<char>, std::__cxx11::basic_string<char>>>, std::less<std::__cxx11::basic_string<char>>>::_Rb_tree_impl" }
%"struct.std::_Rb_tree<std::__cxx11::basic_string<char>, std::pair<const std::__cxx11::basic_string<char>, std::__cxx11::basic_string<char>>, std::_Select1st<std::pair<const std::__cxx11::basic_string<char>, std::__cxx11::basic_string<char>>>, std::less<std::__cxx11::basic_string<char>>>::_Rb_tree_impl" = type { [8 x i8], %"struct.std::_Rb_tree_header" }
%"class.std::vector.17" = type { %"struct.std::_Vector_base.18" }
%"struct.std::_Vector_base.18" = type { %"struct.std::_Vector_base<unsigned char, std::allocator<unsigned char>>::_Vector_impl" }
%"struct.std::_Vector_base<unsigned char, std::allocator<unsigned char>>::_Vector_impl" = type { %"struct.std::_Vector_base<unsigned char, std::allocator<unsigned char>>::_Vector_impl_data" }
%"struct.std::_Vector_base<unsigned char, std::allocator<unsigned char>>::_Vector_impl_data" = type { ptr, ptr, ptr }
%"class.zmq::atomic_counter_t" = type { %"struct.std::atomic.22", [4 x i8] }
%"struct.std::atomic.22" = type { %"struct.std::__atomic_base.23" }
%"struct.std::__atomic_base.23" = type { i32 }
%"class.std::set.24" = type { %"class.std::_Rb_tree.25" }
%"class.std::_Rb_tree.25" = type { %"struct.std::_Rb_tree<zmq::own_t *, zmq::own_t *, std::_Identity<zmq::own_t *>, std::less<zmq::own_t *>>::_Rb_tree_impl" }
%"struct.std::_Rb_tree<zmq::own_t *, zmq::own_t *, std::_Identity<zmq::own_t *>, std::less<zmq::own_t *>>::_Rb_tree_impl" = type { [8 x i8], %"struct.std::_Rb_tree_header" }
%"class.zmq::io_object_t" = type { %"struct.zmq::i_poll_events", ptr }
%"struct.zmq::i_poll_events" = type { ptr }
%"class.std::__cxx11::basic_string" = type { %"struct.std::__cxx11::basic_string<char>::_Alloc_hider", i64, %union.anon }
%"struct.std::__cxx11::basic_string<char>::_Alloc_hider" = type { ptr }
%union.anon = type { i64, [8 x i8] }
%"struct.zmq::endpoint_uri_pair_t" = type <{ %"class.std::__cxx11::basic_string", %"class.std::__cxx11::basic_string", i32, [4 x i8] }>
%"class.zmq::own_t" = type <{ %"class.zmq::object_t.base", [4 x i8], %"struct.zmq::options_t", i8, [7 x i8], %"class.zmq::atomic_counter_t", i64, ptr, %"class.std::set.24", i32, [4 x i8] }>

; Function Attrs: mustprogress nounwind uwtable
define linkonce_odr noundef i32 @_ZNSt14numeric_limitsIiE3maxEv() #2 comdat align 2 {
  ret i32 2147483647
}

; Function Attrs: mustprogress uwtable
define noundef i32 @_ZN3zmq23stream_connecter_base_t21get_new_reconnect_ivlEv(ptr noundef nonnull align 8 dereferenceable(1544) %0) #0 align 2 {
  %2 = alloca i32, align 4
  %3 = alloca ptr, align 8
  %4 = alloca i32, align 4
  %5 = alloca i32, align 4
  %6 = alloca i32, align 4
  store ptr %0, ptr %3, align 8, !tbaa !3
  %7 = load ptr, ptr %3, align 8
  %8 = getelementptr inbounds nuw %"class.zmq::own_t", ptr %7, i32 0, i32 2
  %9 = getelementptr inbounds nuw %"struct.zmq::options_t", ptr %8, i32 0, i32 19
  %10 = load i32, ptr %9, align 4, !tbaa !92
  %11 = icmp sgt i32 %10, 0
  br i1 %11, label %12, label %50

12:                                               ; preds = %1
  call void @llvm.lifetime.start.p0(i64 4, ptr %4) #17
  store i32 0, ptr %4, align 4, !tbaa !90
  %13 = getelementptr inbounds nuw %"class.zmq::stream_connecter_base_t", ptr %7, i32 0, i32 9
  %14 = load i32, ptr %13, align 4, !tbaa !83
  %15 = icmp eq i32 %14, -1
  br i1 %15, label %16, label %20

16:                                               ; preds = %12
  %17 = getelementptr inbounds nuw %"class.zmq::own_t", ptr %7, i32 0, i32 2
  %18 = getelementptr inbounds nuw %"struct.zmq::options_t", ptr %17, i32 0, i32 18
  %19 = load i32, ptr %18, align 8, !tbaa !89
  store i32 %19, ptr %4, align 4, !tbaa !90
  br label %33

20:                                               ; preds = %12
  %21 = getelementptr inbounds nuw %"class.zmq::stream_connecter_base_t", ptr %7, i32 0, i32 9
  %22 = load i32, ptr %21, align 4, !tbaa !83
  %23 = call noundef i32 @_ZNSt14numeric_limitsIiE3maxEv() #17
  %24 = sdiv i32 %23, 2
  %25 = icmp sgt i32 %22, %24
  br i1 %25, label %26, label %28

26:                                               ; preds = %20
  %27 = call noundef i32 @_ZNSt14numeric_limitsIiE3maxEv() #17
  store i32 %27, ptr %4, align 4, !tbaa !90
  br label %32

28:                                               ; preds = %20
  %29 = getelementptr inbounds nuw %"class.zmq::stream_connecter_base_t", ptr %7, i32 0, i32 9
  %30 = load i32, ptr %29, align 4, !tbaa !83
  %31 = mul nsw i32 %30, 2
  store i32 %31, ptr %4, align 4, !tbaa !90
  br label %32

32:                                               ; preds = %28, %26
  br label %33

33:                                               ; preds = %32, %16
  %34 = load i32, ptr %4, align 4, !tbaa !90
  %35 = getelementptr inbounds nuw %"class.zmq::own_t", ptr %7, i32 0, i32 2
  %36 = getelementptr inbounds nuw %"struct.zmq::options_t", ptr %35, i32 0, i32 19
  %37 = load i32, ptr %36, align 4, !tbaa !92
  %38 = icmp sgt i32 %34, %37
  br i1 %38, label %39, label %44

39:                                               ; preds = %33
  %40 = getelementptr inbounds nuw %"class.zmq::own_t", ptr %7, i32 0, i32 2
  %41 = getelementptr inbounds nuw %"struct.zmq::options_t", ptr %40, i32 0, i32 19
  %42 = load i32, ptr %41, align 4, !tbaa !92
  %43 = getelementptr inbounds nuw %"class.zmq::stream_connecter_base_t", ptr %7, i32 0, i32 9
  store i32 %42, ptr %43, align 4, !tbaa !83
  br label %47

44:                                               ; preds = %33
  %45 = load i32, ptr %4, align 4, !tbaa !90
  %46 = getelementptr inbounds nuw %"class.zmq::stream_connecter_base_t", ptr %7, i32 0, i32 9
  store i32 %45, ptr %46, align 4, !tbaa !83
  br label %47

47:                                               ; preds = %44, %39
  %48 = getelementptr inbounds nuw %"class.zmq::stream_connecter_base_t", ptr %7, i32 0, i32 9
  %49 = load i32, ptr %48, align 4, !tbaa !83
  store i32 %49, ptr %2, align 4
  call void @llvm.lifetime.end.p0(i64 4, ptr %4) #17
  br label %81

50:                                               ; preds = %1
  %51 = getelementptr inbounds nuw %"class.zmq::stream_connecter_base_t", ptr %7, i32 0, i32 9
  %52 = load i32, ptr %51, align 4, !tbaa !83
  %53 = icmp eq i32 %52, -1
  br i1 %53, label %54, label %59

54:                                               ; preds = %50
  %55 = getelementptr inbounds nuw %"class.zmq::own_t", ptr %7, i32 0, i32 2
  %56 = getelementptr inbounds nuw %"struct.zmq::options_t", ptr %55, i32 0, i32 18
  %57 = load i32, ptr %56, align 8, !tbaa !89
  %58 = getelementptr inbounds nuw %"class.zmq::stream_connecter_base_t", ptr %7, i32 0, i32 9
  store i32 %57, ptr %58, align 4, !tbaa !83
  br label %59

59:                                               ; preds = %54, %50
  call void @llvm.lifetime.start.p0(i64 4, ptr %5) #17
  %60 = call noundef i32 @_ZN3zmq15generate_randomEv()
  %61 = getelementptr inbounds nuw %"class.zmq::own_t", ptr %7, i32 0, i32 2
  %62 = getelementptr inbounds nuw %"struct.zmq::options_t", ptr %61, i32 0, i32 18
  %63 = load i32, ptr %62, align 8, !tbaa !89
  %64 = urem i32 %60, %63
  store i32 %64, ptr %5, align 4, !tbaa !90
  call void @llvm.lifetime.start.p0(i64 4, ptr %6) #17
  %65 = getelementptr inbounds nuw %"class.zmq::stream_connecter_base_t", ptr %7, i32 0, i32 9
  %66 = load i32, ptr %65, align 4, !tbaa !83
  %67 = call noundef i32 @_ZNSt14numeric_limitsIiE3maxEv() #17
  %68 = load i32, ptr %5, align 4, !tbaa !90
  %69 = sub nsw i32 %67, %68
  %70 = icmp slt i32 %66, %69
  br i1 %70, label %71, label %76

71:                                               ; preds = %59
  %72 = getelementptr inbounds nuw %"class.zmq::stream_connecter_base_t", ptr %7, i32 0, i32 9
  %73 = load i32, ptr %72, align 4, !tbaa !83
  %74 = load i32, ptr %5, align 4, !tbaa !90
  %75 = add nsw i32 %73, %74
  br label %78

76:                                               ; preds = %59
  %77 = call noundef i32 @_ZNSt14numeric_limitsIiE3maxEv() #17
  br label %78

78:                                               ; preds = %76, %71
  %79 = phi i32 [ %75, %71 ], [ %77, %76 ]
  store i32 %79, ptr %6, align 4, !tbaa !90
  %80 = load i32, ptr %6, align 4, !tbaa !90
  store i32 %80, ptr %2, align 4
  call void @llvm.lifetime.end.p0(i64 4, ptr %6) #17
  call void @llvm.lifetime.end.p0(i64 4, ptr %5) #17
  br label %81

81:                                               ; preds = %78, %47
  %82 = load i32, ptr %2, align 4
  ret i32 %82
}

; Function Attrs: mustprogress uwtable
define void @_ZN3zmq23stream_connecter_base_t19add_reconnect_timerEv(ptr noundef nonnull align 8 dereferenceable(1544) %0) #0 align 2 personality ptr @__gxx_personality_v0 {
  %2 = alloca ptr, align 8
  %3 = alloca i32, align 4
  %4 = alloca %"struct.zmq::endpoint_uri_pair_t", align 8
  %5 = alloca ptr, align 8
  %6 = alloca i32, align 4
  store ptr %0, ptr %2, align 8, !tbaa !3
  %7 = load ptr, ptr %2, align 8
  %8 = getelementptr inbounds nuw %"class.zmq::own_t", ptr %7, i32 0, i32 2
  %9 = getelementptr inbounds nuw %"struct.zmq::options_t", ptr %8, i32 0, i32 18
  %10 = load i32, ptr %9, align 8, !tbaa !89
  %11 = icmp sgt i32 %10, 0
  br i1 %11, label %12, label %26

12:                                               ; preds = %1
  call void @llvm.lifetime.start.p0(i64 4, ptr %3) #17
  %13 = call noundef i32 @_ZN3zmq23stream_connecter_base_t21get_new_reconnect_ivlEv(ptr noundef nonnull align 8 dereferenceable(1544) %7)
  store i32 %13, ptr %3, align 4, !tbaa !90
  %14 = getelementptr inbounds i8, ptr %7, i64 1448
  %15 = load i32, ptr %3, align 4, !tbaa !90
  call void @_ZN3zmq11io_object_t9add_timerEii(ptr noundef nonnull align 8 dereferenceable(16) %14, i32 noundef %15, i32 noundef 1)
  %16 = getelementptr inbounds nuw %"class.zmq::stream_connecter_base_t", ptr %7, i32 0, i32 6
  %17 = load ptr, ptr %16, align 8, !tbaa !78
  call void @llvm.lifetime.start.p0(i64 72, ptr %4) #17
  %18 = getelementptr inbounds nuw %"class.zmq::stream_connecter_base_t", ptr %7, i32 0, i32 5
  call void @_ZN3zmq38make_unconnected_connect_endpoint_pairERKNSt7__cxx1112basic_stringIcSt11char_traitsIcESaIcEEE(ptr dead_on_unwind writable sret(%"struct.zmq::endpoint_uri_pair_t") align 8 %4, ptr noundef nonnull align 8 dereferenceable(32) %18)
  %19 = load i32, ptr %3, align 4, !tbaa !90
  invoke void @_ZN3zmq13socket_base_t21event_connect_retriedERKNS_19endpoint_uri_pair_tEi(ptr noundef nonnull align 8 dereferenceable(1825) %17, ptr noundef nonnull align 8 dereferenceable(68) %4, i32 noundef %19)
          to label %20 unwind label %22

20:                                               ; preds = %12
  call void @_ZN3zmq19endpoint_uri_pair_tD2Ev(ptr noundef nonnull align 8 dereferenceable(68) %4) #17
  call void @llvm.lifetime.end.p0(i64 72, ptr %4) #17
  %21 = getelementptr inbounds nuw %"class.zmq::stream_connecter_base_t", ptr %7, i32 0, i32 8
  store i8 1, ptr %21, align 1, !tbaa !82
  call void @llvm.lifetime.end.p0(i64 4, ptr %3) #17
  br label %26

22:                                               ; preds = %12
  %23 = landingpad { ptr, i32 }
          cleanup
  %24 = extractvalue { ptr, i32 } %23, 0
  store ptr %24, ptr %5, align 8
  %25 = extractvalue { ptr, i32 } %23, 1
  store i32 %25, ptr %6, align 4
  call void @_ZN3zmq19endpoint_uri_pair_tD2Ev(ptr noundef nonnull align 8 dereferenceable(68) %4) #17
  call void @llvm.lifetime.end.p0(i64 72, ptr %4) #17
  call void @llvm.lifetime.end.p0(i64 4, ptr %3) #17
  br label %27

26:                                               ; preds = %20, %1
  ret void

27:                                               ; preds = %22
  %28 = load ptr, ptr %5, align 8
  %29 = load i32, ptr %6, align 4
  %30 = insertvalue { ptr, i32 } poison, ptr %28, 0
  %31 = insertvalue { ptr, i32 } %30, i32 %29, 1
  resume { ptr, i32 } %31
}