; Function Attrs: mustprogress uwtable
define void @_ZN3zmq23stream_connecter_base_t19add_reconnect_timerEv(ptr noundef nonnull align 8 dereferenceable(1544) %0) local_unnamed_addr #0 align 2 personality ptr @__gxx_personality_v0 {
  %2 = alloca %"struct.zmq::endpoint_uri_pair_t", align 8
  %3 = getelementptr inbounds nuw i8, ptr %0, i64 352
  %4 = load i32, ptr %3, align 8, !tbaa !84
  %5 = icmp sgt i32 %4, 0
  br i1 %5, label %6, label %47

6:                                                ; preds = %1
  %7 = getelementptr inbounds nuw i8, ptr %0, i64 356
  %8 = load i32, ptr %7, align 4, !tbaa !85
  %9 = icmp sgt i32 %8, 0
  %10 = getelementptr inbounds nuw i8, ptr %0, i64 1532
  %11 = load i32, ptr %10, align 4, !tbaa !75
  %12 = icmp eq i32 %11, -1
  br i1 %9, label %13, label %16

13:                                               ; preds = %6
  %14 = icmp sgt i32 %11, 1073741823
  %15 = shl nsw i32 %11, 1
  %spec.select.i = select i1 %14, i32 2147483647, i32 %15
  %.06.i = select i1 %12, i32 %4, i32 %spec.select.i
  %..06.i = tail call i32 @llvm.smin.i32(i32 %.06.i, i32 %8)
  store i32 %..06.i, ptr %10, align 4, !tbaa !75
  br label %_ZN3zmq23stream_connecter_base_t21get_new_reconnect_ivlEv.exit

16:                                               ; preds = %6
  br i1 %12, label %17, label %18

17:                                               ; preds = %16
  store i32 %4, ptr %10, align 4, !tbaa !75
  br label %18

18:                                               ; preds = %17, %16
  %19 = tail call noundef i32 @_ZN3zmq15generate_randomEv()
  %20 = load i32, ptr %3, align 8, !tbaa !84
  %21 = urem i32 %19, %20
  %22 = load i32, ptr %10, align 4, !tbaa !75
  %23 = sub nsw i32 2147483647, %21
  %24 = icmp slt i32 %22, %23
  %25 = add nsw i32 %22, %21
  %spec.select9.i = select i1 %24, i32 %25, i32 2147483647
  br label %_ZN3zmq23stream_connecter_base_t21get_new_reconnect_ivlEv.exit

_ZN3zmq23stream_connecter_base_t21get_new_reconnect_ivlEv.exit: ; preds = %13, %18
  %.0.i = phi i32 [ %..06.i, %13 ], [ %spec.select9.i, %18 ]
  %26 = getelementptr inbounds nuw i8, ptr %0, i64 1448
  tail call void @_ZN3zmq11io_object_t9add_timerEii(ptr noundef nonnull align 8 dereferenceable(16) %26, i32 noundef %.0.i, i32 noundef 1)
  %27 = getelementptr inbounds nuw i8, ptr %0, i64 1520
  %28 = load ptr, ptr %27, align 8, !tbaa !72
  call void @llvm.lifetime.start.p0(i64 72, ptr nonnull %2) #22
  %29 = getelementptr inbounds nuw i8, ptr %0, i64 1488
  call void @_ZN3zmq38make_unconnected_connect_endpoint_pairERKNSt7__cxx1112basic_stringIcSt11char_traitsIcESaIcEEE(ptr dead_on_unwind nonnull writable sret(%"struct.zmq::endpoint_uri_pair_t") align 8 %2, ptr noundef nonnull align 8 dereferenceable(32) %29)
  invoke void @_ZN3zmq13socket_base_t21event_connect_retriedERKNS_19endpoint_uri_pair_tEi(ptr noundef nonnull align 8 dereferenceable(1825) %28, ptr noundef nonnull align 8 dereferenceable(68) %2, i32 noundef %.0.i)
          to label %30 unwind label %45

30:                                               ; preds = %_ZN3zmq23stream_connecter_base_t21get_new_reconnect_ivlEv.exit
  %31 = getelementptr inbounds nuw i8, ptr %2, i64 32
  %32 = load ptr, ptr %31, align 8, !tbaa !80
  %33 = getelementptr inbounds nuw i8, ptr %2, i64 48
  %34 = icmp eq ptr %32, %33
  br i1 %34, label %_ZNKSt7__cxx1112basic_stringIcSt11char_traitsIcESaIcEE11_M_is_localEv.exit.thread.i.i.i, label %_ZNKSt7__cxx1112basic_stringIcSt11char_traitsIcESaIcEE11_M_is_localEv.exit.i.i.i

_ZNKSt7__cxx1112basic_stringIcSt11char_traitsIcESaIcEE11_M_is_localEv.exit.thread.i.i.i: ; preds = %30
  %35 = getelementptr inbounds nuw i8, ptr %2, i64 40
  %36 = load i64, ptr %35, align 8, !tbaa !70
  %37 = icmp ult i64 %36, 16
  call void @llvm.assume(i1 %37)
  br label %_ZNSt7__cxx1112basic_stringIcSt11char_traitsIcESaIcEED2Ev.exit.i

_ZNKSt7__cxx1112basic_stringIcSt11char_traitsIcESaIcEE11_M_is_localEv.exit.i.i.i: ; preds = %30
  call void @_ZdlPv(ptr noundef %32) #21
  br label %_ZNSt7__cxx1112basic_stringIcSt11char_traitsIcESaIcEED2Ev.exit.i

_ZNSt7__cxx1112basic_stringIcSt11char_traitsIcESaIcEED2Ev.exit.i: ; preds = %_ZNKSt7__cxx1112basic_stringIcSt11char_traitsIcESaIcEE11_M_is_localEv.exit.i.i.i, %_ZNKSt7__cxx1112basic_stringIcSt11char_traitsIcESaIcEE11_M_is_localEv.exit.thread.i.i.i
  %38 = load ptr, ptr %2, align 8, !tbaa !80
  %39 = getelementptr inbounds nuw i8, ptr %2, i64 16
  %40 = icmp eq ptr %38, %39
  br i1 %40, label %_ZNKSt7__cxx1112basic_stringIcSt11char_traitsIcESaIcEE11_M_is_localEv.exit.thread.i.i2.i, label %_ZNKSt7__cxx1112basic_stringIcSt11char_traitsIcESaIcEE11_M_is_localEv.exit.i.i1.i

_ZNKSt7__cxx1112basic_stringIcSt11char_traitsIcESaIcEE11_M_is_localEv.exit.thread.i.i2.i: ; preds = %_ZNSt7__cxx1112basic_stringIcSt11char_traitsIcESaIcEED2Ev.exit.i
  %41 = getelementptr inbounds nuw i8, ptr %2, i64 8
  %42 = load i64, ptr %41, align 8, !tbaa !70
  %43 = icmp ult i64 %42, 16
  call void @llvm.assume(i1 %43)
  br label %_ZN3zmq19endpoint_uri_pair_tD2Ev.exit

_ZNKSt7__cxx1112basic_stringIcSt11char_traitsIcESaIcEE11_M_is_localEv.exit.i.i1.i: ; preds = %_ZNSt7__cxx1112basic_stringIcSt11char_traitsIcESaIcEED2Ev.exit.i
  call void @_ZdlPv(ptr noundef %38) #21
  br label %_ZN3zmq19endpoint_uri_pair_tD2Ev.exit

_ZN3zmq19endpoint_uri_pair_tD2Ev.exit:            ; preds = %_ZNKSt7__cxx1112basic_stringIcSt11char_traitsIcESaIcEE11_M_is_localEv.exit.thread.i.i2.i, %_ZNKSt7__cxx1112basic_stringIcSt11char_traitsIcESaIcEE11_M_is_localEv.exit.i.i1.i
  call void @llvm.lifetime.end.p0(i64 72, ptr nonnull %2) #22
  %44 = getelementptr inbounds nuw i8, ptr %0, i64 1529
  store i8 1, ptr %44, align 1, !tbaa !74
  br label %47

45:                                               ; preds = %_ZN3zmq23stream_connecter_base_t21get_new_reconnect_ivlEv.exit
  %46 = landingpad { ptr, i32 }
          cleanup
  call void @_ZN3zmq19endpoint_uri_pair_tD2Ev(ptr noundef nonnull align 8 dereferenceable(68) %2) #22
  call void @llvm.lifetime.end.p0(i64 72, ptr nonnull %2) #22
  resume { ptr, i32 } %46

47:                                               ; preds = %_ZN3zmq19endpoint_uri_pair_tD2Ev.exit, %1
  ret void
}